
task0.o:     file format elf64-x86-64


Disassembly of section .text:

0000000000000000 <example_func>:
   0:	55                   	push   %rbp
   1:	48 89 e5             	mov    %rsp,%rbp
   4:	b8 00 00 00 00       	mov    $0x0,%eax
   9:	e8 00 00 00 00       	callq  e <example_func+0xe>
   e:	5d                   	pop    %rbp
   f:	c3                   	retq   

0000000000000010 <create_task>:
  10:	55                   	push   %rbp
  11:	48 89 e5             	mov    %rsp,%rbp
  14:	48 89 7d e8          	mov    %rdi,-0x18(%rbp)
  18:	48 89 75 e0          	mov    %rsi,-0x20(%rbp)
  1c:	48 89 55 d8          	mov    %rdx,-0x28(%rbp)
  20:	48 c7 45 f8 00 00 00 	movq   $0x0,-0x8(%rbp)
  27:	00 
  28:	48 8b 45 f8          	mov    -0x8(%rbp),%rax
  2c:	48 c7 00 14 00 00 00 	movq   $0x14,(%rax)
  33:	48 8d 04 25 00 00 00 	lea    0x0,%rax
  3a:	00 
  3b:	48 89 20             	mov    %rsp,(%rax)
  3e:	48 89 60 08          	mov    %rsp,0x8(%rax)
  42:	48 89 60 10          	mov    %rsp,0x10(%rax)
  46:	5d                   	pop    %rbp
  47:	c3                   	retq   

0000000000000048 <task0>:
  48:	55                   	push   %rbp
  49:	48 89 e5             	mov    %rsp,%rbp
  4c:	5d                   	pop    %rbp
  4d:	c3                   	retq   

000000000000004e <main>:
  4e:	55                   	push   %rbp
  4f:	48 89 e5             	mov    %rsp,%rbp
  52:	e8 00 00 00 00       	callq  57 <main+0x9>
  57:	48 8b 05 00 00 00 00 	mov    0x0(%rip),%rax        # 5e <main+0x10>
  5e:	48 89 c1             	mov    %rax,%rcx
  61:	48 8b 05 00 00 00 00 	mov    0x0(%rip),%rax        # 68 <main+0x1a>
  68:	ba 00 00 00 00       	mov    $0x0,%edx
  6d:	48 89 ce             	mov    %rcx,%rsi
  70:	48 89 c7             	mov    %rax,%rdi
  73:	e8 00 00 00 00       	callq  78 <main+0x2a>
  78:	5d                   	pop    %rbp
  79:	c3                   	retq   
